target datalayout = "e-m:e-p270:32:32-p271:32:32-p272:64:64-i64:64-i128:128-f80:128-n8:16:32:64-S128"
target triple = "x86_64-pc-linux-gnu"

@ZSTD_did_fieldSize = internal constant [4 x i64] [i64 0, i64 1, i64 2, i64 4], align 16
@ZSTD_fcs_fieldSize = internal constant [4 x i64] [i64 0, i64 2, i64 4, i64 8], align 16

; Function Attrs: nounwind uwtable
define internal i64 @ZSTD_startingInputLength(i32 noundef %0) #0 {
  %2 = alloca i32, align 4
  %3 = alloca i64, align 8
  store i32 %0, ptr %2, align 4, !tbaa !43
  call void @llvm.lifetime.start.p0(i64 8, ptr %3) #11
  %4 = load i32, ptr %2, align 4, !tbaa !43
  %5 = icmp eq i32 %4, 0
  %6 = select i1 %5, i32 5, i32 1
  %7 = sext i32 %6 to i64
  store i64 %7, ptr %3, align 8, !tbaa !24
  %8 = load i64, ptr %3, align 8, !tbaa !24
  call void @llvm.lifetime.end.p0(i64 8, ptr %3) #11
  ret i64 %8
}

; Function Attrs: nounwind uwtable
define internal i64 @ZSTD_frameHeaderSize_internal(ptr noundef %0, i64 noundef %1, i32 noundef %2) #0 {
  %4 = alloca i64, align 8
  %5 = alloca ptr, align 8
  %6 = alloca i64, align 8
  %7 = alloca i32, align 4
  %8 = alloca i64, align 8
  %9 = alloca i32, align 4
  %10 = alloca i8, align 1
  %11 = alloca i32, align 4
  %12 = alloca i32, align 4
  %13 = alloca i32, align 4
  store ptr %0, ptr %5, align 8, !tbaa !23
  store i64 %1, ptr %6, align 8, !tbaa !24
  store i32 %2, ptr %7, align 4, !tbaa !43
  call void @llvm.lifetime.start.p0(i64 8, ptr %8) #11
  %14 = load i32, ptr %7, align 4, !tbaa !43
  %15 = call i64 @ZSTD_startingInputLength(i32 noundef %14)
  store i64 %15, ptr %8, align 8, !tbaa !24
  br label %16

16:                                               ; preds = %3
  %17 = load i64, ptr %6, align 8, !tbaa !24
  %18 = load i64, ptr %8, align 8, !tbaa !24
  %19 = icmp ult i64 %17, %18
  br i1 %19, label %20, label %33

20:                                               ; preds = %16
  br label %21

21:                                               ; preds = %20
  br label %22

22:                                               ; preds = %21
  br label %23

23:                                               ; preds = %22
  br label %24

24:                                               ; preds = %23
  br label %25

25:                                               ; preds = %24
  br label %26

26:                                               ; preds = %25
  br label %27

27:                                               ; preds = %26
  br label %28

28:                                               ; preds = %27
  br label %29

29:                                               ; preds = %28
  br label %30

30:                                               ; preds = %29
  br label %31

31:                                               ; preds = %30
  br label %32

32:                                               ; preds = %31
  store i64 -72, ptr %4, align 8
  store i32 1, ptr %9, align 4
  br label %79

33:                                               ; preds = %16
  br label %34

34:                                               ; preds = %33
  br label %35

35:                                               ; preds = %34
  call void @llvm.lifetime.start.p0(i64 1, ptr %10) #11
  %36 = load ptr, ptr %5, align 8, !tbaa !23
  %37 = load i64, ptr %8, align 8, !tbaa !24
  %38 = sub i64 %37, 1
  %39 = getelementptr inbounds nuw i8, ptr %36, i64 %38
  %40 = load i8, ptr %39, align 1, !tbaa !47
  store i8 %40, ptr %10, align 1, !tbaa !47
  call void @llvm.lifetime.start.p0(i64 4, ptr %11) #11
  %41 = load i8, ptr %10, align 1, !tbaa !47
  %42 = zext i8 %41 to i32
  %43 = and i32 %42, 3
  store i32 %43, ptr %11, align 4, !tbaa !43
  call void @llvm.lifetime.start.p0(i64 4, ptr %12) #11
  %44 = load i8, ptr %10, align 1, !tbaa !47
  %45 = zext i8 %44 to i32
  %46 = ashr i32 %45, 5
  %47 = and i32 %46, 1
  store i32 %47, ptr %12, align 4, !tbaa !43
  call void @llvm.lifetime.start.p0(i64 4, ptr %13) #11
  %48 = load i8, ptr %10, align 1, !tbaa !47
  %49 = zext i8 %48 to i32
  %50 = ashr i32 %49, 6
  store i32 %50, ptr %13, align 4, !tbaa !43
  %51 = load i64, ptr %8, align 8, !tbaa !24
  %52 = load i32, ptr %12, align 4, !tbaa !43
  %53 = icmp ne i32 %52, 0
  %54 = xor i1 %53, true
  %55 = zext i1 %54 to i32
  %56 = sext i32 %55 to i64
  %57 = add i64 %51, %56
  %58 = load i32, ptr %11, align 4, !tbaa !43
  %59 = zext i32 %58 to i64
  %60 = getelementptr inbounds nuw [4 x i64], ptr @ZSTD_did_fieldSize, i64 0, i64 %59
  %61 = load i64, ptr %60, align 8, !tbaa !24
  %62 = add i64 %57, %61
  %63 = load i32, ptr %13, align 4, !tbaa !43
  %64 = zext i32 %63 to i64
  %65 = getelementptr inbounds nuw [4 x i64], ptr @ZSTD_fcs_fieldSize, i64 0, i64 %64
  %66 = load i64, ptr %65, align 8, !tbaa !24
  %67 = add i64 %62, %66
  %68 = load i32, ptr %12, align 4, !tbaa !43
  %69 = icmp ne i32 %68, 0
  br i1 %69, label %70, label %74

70:                                               ; preds = %35
  %71 = load i32, ptr %13, align 4, !tbaa !43
  %72 = icmp ne i32 %71, 0
  %73 = xor i1 %72, true
  br label %74

74:                                               ; preds = %70, %35
  %75 = phi i1 [ false, %35 ], [ %73, %70 ]
  %76 = zext i1 %75 to i32
  %77 = sext i32 %76 to i64
  %78 = add i64 %67, %77
  store i64 %78, ptr %4, align 8
  store i32 1, ptr %9, align 4
  call void @llvm.lifetime.end.p0(i64 4, ptr %13) #11
  call void @llvm.lifetime.end.p0(i64 4, ptr %12) #11
  call void @llvm.lifetime.end.p0(i64 4, ptr %11) #11
  call void @llvm.lifetime.end.p0(i64 1, ptr %10) #11
  br label %79

79:                                               ; preds = %74, %32
  call void @llvm.lifetime.end.p0(i64 8, ptr %8) #11
  %80 = load i64, ptr %4, align 8
  ret i64 %80
}

; Function Attrs: nounwind uwtable
define i64 @ZSTD_frameHeaderSize(ptr noundef %0, i64 noundef %1) #0 {
  %3 = alloca ptr, align 8
  %4 = alloca i64, align 8
  store ptr %0, ptr %3, align 8, !tbaa !23
  store i64 %1, ptr %4, align 8, !tbaa !24
  %5 = load ptr, ptr %3, align 8, !tbaa !23
  %6 = load i64, ptr %4, align 8, !tbaa !24
  %7 = call i64 @ZSTD_frameHeaderSize_internal(ptr noundef %5, i64 noundef %6, i32 noundef 0)
  ret i64 %7
}